target datalayout = "e-m:e-p270:32:32-p271:32:32-p272:64:64-i64:64-i128:128-f80:128-n8:16:32:64-S128"
target triple = "x86_64-unknown-linux-gnu"

%struct.HashMap = type { ptr, i32, i32 }
%struct.Scope = type { ptr, %struct.HashMap, %struct.HashMap }
%struct.Node = type { i32, ptr, ptr, ptr, ptr, ptr, ptr, ptr, ptr, ptr, ptr, ptr, ptr, ptr, ptr, ptr, ptr, i8, ptr, ptr, ptr, ptr, ptr, ptr, i64, i64, ptr, ptr, ptr, ptr, ptr, ptr, ptr, i64, x86_fp80 }
%struct.Obj = type { ptr, ptr, ptr, ptr, i8, i32, i32, i8, i8, i8, i8, i8, ptr, ptr, i8, ptr, ptr, ptr, ptr, ptr, i32, i8, i8, %struct.StringArray }
%struct.StringArray = type { ptr, i32, i32 }
%struct.Type = type { i32, i32, i32, i8, i8, ptr, ptr, ptr, ptr, i32, ptr, ptr, ptr, i8, i8, ptr, ptr, i8, ptr }
%struct.VarScope = type { ptr, ptr, ptr, i32 }

@.str.4 = private unnamed_addr constant [1 x i8] zeroinitializer, align 1
@scope = internal global ptr @.compoundliteral, align 8
@ty_ulong = external global ptr, align 8
@locals = internal global ptr null, align 8

; Function Attrs: nounwind uwtable
define internal ptr @push_scope(ptr noundef %name) #0 {
entry:
  %name.addr = alloca ptr, align 8
  %sc = alloca ptr, align 8
  store ptr %name, ptr %name.addr, align 8
  %call = call noalias ptr @calloc(i64 noundef 1, i64 noundef 32) #8
  store ptr %call, ptr %sc, align 8
  %0 = load ptr, ptr @scope, align 8
  %vars = getelementptr inbounds %struct.Scope, ptr %0, i32 0, i32 1
  %1 = load ptr, ptr %name.addr, align 8
  %2 = load ptr, ptr %sc, align 8
  call void @hashmap_put(ptr noundef %vars, ptr noundef %1, ptr noundef %2)
  %3 = load ptr, ptr %sc, align 8
  ret ptr %3
}

; Function Attrs: nounwind uwtable
define internal ptr @new_var(ptr noundef %name, ptr noundef %ty) #0 {
entry:
  %name.addr = alloca ptr, align 8
  %ty.addr = alloca ptr, align 8
  %var = alloca ptr, align 8
  store ptr %name, ptr %name.addr, align 8
  store ptr %ty, ptr %ty.addr, align 8
  %call = call noalias ptr @calloc(i64 noundef 1, i64 noundef 144) #8
  store ptr %call, ptr %var, align 8
  %0 = load ptr, ptr %name.addr, align 8
  %1 = load ptr, ptr %var, align 8
  %name1 = getelementptr inbounds %struct.Obj, ptr %1, i32 0, i32 1
  store ptr %0, ptr %name1, align 8
  %2 = load ptr, ptr %ty.addr, align 8
  %3 = load ptr, ptr %var, align 8
  %ty2 = getelementptr inbounds %struct.Obj, ptr %3, i32 0, i32 2
  store ptr %2, ptr %ty2, align 8
  %4 = load ptr, ptr %ty.addr, align 8
  %align = getelementptr inbounds %struct.Type, ptr %4, i32 0, i32 2
  %5 = load i32, ptr %align, align 8
  %6 = load ptr, ptr %var, align 8
  %align3 = getelementptr inbounds %struct.Obj, ptr %6, i32 0, i32 5
  store i32 %5, ptr %align3, align 4
  %7 = load ptr, ptr %var, align 8
  %8 = load ptr, ptr %name.addr, align 8
  %call4 = call ptr @push_scope(ptr noundef %8)
  %var5 = getelementptr inbounds %struct.VarScope, ptr %call4, i32 0, i32 0
  store ptr %7, ptr %var5, align 8
  %9 = load ptr, ptr %var, align 8
  ret ptr %9
}

; Function Attrs: nounwind uwtable
define internal ptr @new_lvar(ptr noundef %name, ptr noundef %ty) #0 {
entry:
  %name.addr = alloca ptr, align 8
  %ty.addr = alloca ptr, align 8
  %var = alloca ptr, align 8
  store ptr %name, ptr %name.addr, align 8
  store ptr %ty, ptr %ty.addr, align 8
  %0 = load ptr, ptr %name.addr, align 8
  %1 = load ptr, ptr %ty.addr, align 8
  %call = call ptr @new_var(ptr noundef %0, ptr noundef %1)
  store ptr %call, ptr %var, align 8
  %2 = load ptr, ptr %var, align 8
  %is_local = getelementptr inbounds %struct.Obj, ptr %2, i32 0, i32 4
  store i8 1, ptr %is_local, align 8
  %3 = load ptr, ptr @locals, align 8
  %4 = load ptr, ptr %var, align 8
  %next = getelementptr inbounds %struct.Obj, ptr %4, i32 0, i32 0
  store ptr %3, ptr %next, align 8
  %5 = load ptr, ptr %var, align 8
  store ptr %5, ptr @locals, align 8
  %6 = load ptr, ptr %var, align 8
  ret ptr %6
}

; Function Attrs: nounwind uwtable
define internal ptr @new_num(i64 noundef %val, ptr noundef %tok) #0 {
entry:
  %val.addr = alloca i64, align 8
  %tok.addr = alloca ptr, align 8
  %node = alloca ptr, align 8
  store i64 %val, ptr %val.addr, align 8
  store ptr %tok, ptr %tok.addr, align 8
  %0 = load ptr, ptr %tok.addr, align 8
  %call = call ptr @new_node(i32 noundef 42, ptr noundef %0)
  store ptr %call, ptr %node, align 8
  %1 = load i64, ptr %val.addr, align 8
  %2 = load ptr, ptr %node, align 8
  %val1 = getelementptr inbounds %struct.Node, ptr %2, i32 0, i32 33
  store i64 %1, ptr %val1, align 8
  %3 = load ptr, ptr %node, align 8
  ret ptr %3
}

; Function Attrs: nounwind uwtable
define internal ptr @new_var_node(ptr noundef %var, ptr noundef %tok) #0 {
entry:
  %var.addr = alloca ptr, align 8
  %tok.addr = alloca ptr, align 8
  %node = alloca ptr, align 8
  store ptr %var, ptr %var.addr, align 8
  store ptr %tok, ptr %tok.addr, align 8
  %0 = load ptr, ptr %tok.addr, align 8
  %call = call ptr @new_node(i32 noundef 40, ptr noundef %0)
  store ptr %call, ptr %node, align 8
  %1 = load ptr, ptr %var.addr, align 8
  %2 = load ptr, ptr %node, align 8
  %var1 = getelementptr inbounds %struct.Node, ptr %2, i32 0, i32 32
  store ptr %1, ptr %var1, align 16
  %3 = load ptr, ptr %node, align 8
  ret ptr %3
}

; Function Attrs: nounwind uwtable
define internal ptr @new_binary(i32 noundef %kind, ptr noundef %lhs, ptr noundef %rhs, ptr noundef %tok) #0 {
entry:
  %kind.addr = alloca i32, align 4
  %lhs.addr = alloca ptr, align 8
  %rhs.addr = alloca ptr, align 8
  %tok.addr = alloca ptr, align 8
  %node = alloca ptr, align 8
  store i32 %kind, ptr %kind.addr, align 4
  store ptr %lhs, ptr %lhs.addr, align 8
  store ptr %rhs, ptr %rhs.addr, align 8
  store ptr %tok, ptr %tok.addr, align 8
  %0 = load i32, ptr %kind.addr, align 4
  %1 = load ptr, ptr %tok.addr, align 8
  %call = call ptr @new_node(i32 noundef %0, ptr noundef %1)
  store ptr %call, ptr %node, align 8
  %2 = load ptr, ptr %lhs.addr, align 8
  %3 = load ptr, ptr %node, align 8
  %lhs1 = getelementptr inbounds %struct.Node, ptr %3, i32 0, i32 4
  store ptr %2, ptr %lhs1, align 16
  %4 = load ptr, ptr %rhs.addr, align 8
  %5 = load ptr, ptr %node, align 8
  %rhs2 = getelementptr inbounds %struct.Node, ptr %5, i32 0, i32 5
  store ptr %4, ptr %rhs2, align 8
  %6 = load ptr, ptr %node, align 8
  ret ptr %6
}

; Function Attrs: nounwind uwtable
define internal ptr @new_node(i32 noundef %kind, ptr noundef %tok) #0 {
entry:
  %kind.addr = alloca i32, align 4
  %tok.addr = alloca ptr, align 8
  %node = alloca ptr, align 8
  store i32 %kind, ptr %kind.addr, align 4
  store ptr %tok, ptr %tok.addr, align 8
  %call = call noalias ptr @calloc(i64 noundef 1, i64 noundef 288) #8
  store ptr %call, ptr %node, align 8
  %0 = load i32, ptr %kind.addr, align 4
  %1 = load ptr, ptr %node, align 8
  %kind1 = getelementptr inbounds %struct.Node, ptr %1, i32 0, i32 0
  store i32 %0, ptr %kind1, align 16
  %2 = load ptr, ptr %tok.addr, align 8
  %3 = load ptr, ptr %node, align 8
  %tok2 = getelementptr inbounds %struct.Node, ptr %3, i32 0, i32 3
  store ptr %2, ptr %tok2, align 8
  %4 = load ptr, ptr %node, align 8
  ret ptr %4
}

; Function Attrs: nounwind uwtable
define internal ptr @compute_vla_size(ptr noundef %ty, ptr noundef %tok) #0 {
entry:
  %retval = alloca ptr, align 8
  %ty.addr = alloca ptr, align 8
  %tok.addr = alloca ptr, align 8
  %node = alloca ptr, align 8
  %base_sz = alloca ptr, align 8
  %expr = alloca ptr, align 8
  store ptr %ty, ptr %ty.addr, align 8
  store ptr %tok, ptr %tok.addr, align 8
  %0 = load ptr, ptr %tok.addr, align 8
  %call = call ptr @new_node(i32 noundef 0, ptr noundef %0)
  store ptr %call, ptr %node, align 8
  %1 = load ptr, ptr %ty.addr, align 8
  %base = getelementptr inbounds %struct.Type, ptr %1, i32 0, i32 6
  %2 = load ptr, ptr %base, align 8
  %tobool = icmp ne ptr %2, null
  br i1 %tobool, label %if.then, label %if.end

if.then:                                          ; preds = %entry
  %3 = load ptr, ptr %node, align 8
  %4 = load ptr, ptr %ty.addr, align 8
  %base1 = getelementptr inbounds %struct.Type, ptr %4, i32 0, i32 6
  %5 = load ptr, ptr %base1, align 8
  %6 = load ptr, ptr %tok.addr, align 8
  %call2 = call ptr @compute_vla_size(ptr noundef %5, ptr noundef %6)
  %7 = load ptr, ptr %tok.addr, align 8
  %call3 = call ptr @new_binary(i32 noundef 18, ptr noundef %3, ptr noundef %call2, ptr noundef %7)
  store ptr %call3, ptr %node, align 8
  br label %if.end

if.end:                                           ; preds = %if.then, %entry
  %8 = load ptr, ptr %ty.addr, align 8
  %kind = getelementptr inbounds %struct.Type, ptr %8, i32 0, i32 0
  %9 = load i32, ptr %kind, align 8
  %cmp = icmp ne i32 %9, 13
  br i1 %cmp, label %if.then4, label %if.end5

if.then4:                                         ; preds = %if.end
  %10 = load ptr, ptr %node, align 8
  store ptr %10, ptr %retval, align 8
  br label %return

if.end5:                                          ; preds = %if.end
  %11 = load ptr, ptr %ty.addr, align 8
  %base6 = getelementptr inbounds %struct.Type, ptr %11, i32 0, i32 6
  %12 = load ptr, ptr %base6, align 8
  %kind7 = getelementptr inbounds %struct.Type, ptr %12, i32 0, i32 0
  %13 = load i32, ptr %kind7, align 8
  %cmp8 = icmp eq i32 %13, 13
  br i1 %cmp8, label %if.then9, label %if.else

if.then9:                                         ; preds = %if.end5
  %14 = load ptr, ptr %ty.addr, align 8
  %base10 = getelementptr inbounds %struct.Type, ptr %14, i32 0, i32 6
  %15 = load ptr, ptr %base10, align 8
  %vla_size = getelementptr inbounds %struct.Type, ptr %15, i32 0, i32 11
  %16 = load ptr, ptr %vla_size, align 8
  %17 = load ptr, ptr %tok.addr, align 8
  %call11 = call ptr @new_var_node(ptr noundef %16, ptr noundef %17)
  store ptr %call11, ptr %base_sz, align 8
  br label %if.end14

if.else:                                          ; preds = %if.end5
  %18 = load ptr, ptr %ty.addr, align 8
  %base12 = getelementptr inbounds %struct.Type, ptr %18, i32 0, i32 6
  %19 = load ptr, ptr %base12, align 8
  %size = getelementptr inbounds %struct.Type, ptr %19, i32 0, i32 1
  %20 = load i32, ptr %size, align 4
  %conv = sext i32 %20 to i64
  %21 = load ptr, ptr %tok.addr, align 8
  %call13 = call ptr @new_num(i64 noundef %conv, ptr noundef %21)
  store ptr %call13, ptr %base_sz, align 8
  br label %if.end14

if.end14:                                         ; preds = %if.else, %if.then9
  %22 = load ptr, ptr @ty_ulong, align 8
  %call15 = call ptr @new_lvar(ptr noundef @.str.4, ptr noundef %22)
  %23 = load ptr, ptr %ty.addr, align 8
  %vla_size16 = getelementptr inbounds %struct.Type, ptr %23, i32 0, i32 11
  store ptr %call15, ptr %vla_size16, align 8
  %24 = load ptr, ptr %ty.addr, align 8
  %vla_size17 = getelementptr inbounds %struct.Type, ptr %24, i32 0, i32 11
  %25 = load ptr, ptr %vla_size17, align 8
  %26 = load ptr, ptr %tok.addr, align 8
  %call18 = call ptr @new_var_node(ptr noundef %25, ptr noundef %26)
  %27 = load ptr, ptr %ty.addr, align 8
  %vla_len = getelementptr inbounds %struct.Type, ptr %27, i32 0, i32 10
  %28 = load ptr, ptr %vla_len, align 8
  %29 = load ptr, ptr %base_sz, align 8
  %30 = load ptr, ptr %tok.addr, align 8
  %call19 = call ptr @new_binary(i32 noundef 3, ptr noundef %28, ptr noundef %29, ptr noundef %30)
  %31 = load ptr, ptr %tok.addr, align 8
  %call20 = call ptr @new_binary(i32 noundef 16, ptr noundef %call18, ptr noundef %call19, ptr noundef %31)
  store ptr %call20, ptr %expr, align 8
  %32 = load ptr, ptr %node, align 8
  %33 = load ptr, ptr %expr, align 8
  %34 = load ptr, ptr %tok.addr, align 8
  %call21 = call ptr @new_binary(i32 noundef 18, ptr noundef %32, ptr noundef %33, ptr noundef %34)
  store ptr %call21, ptr %retval, align 8
  br label %return

return:                                           ; preds = %if.end14, %if.then4
  %35 = load ptr, ptr %retval, align 8
  ret ptr %35
}