; Function Attrs: nounwind uwtable
define internal fastcc noundef ptr @compute_vla_size(ptr nocapture noundef %ty, ptr noundef %tok) unnamed_addr #0 {
entry:
  %call.i = tail call noalias noundef dereferenceable_or_null(288) ptr @calloc(i64 noundef 1, i64 noundef 288) #14
  %tok2.i = getelementptr inbounds %struct.Node, ptr %call.i, i64 0, i32 3
  store ptr %tok, ptr %tok2.i, align 8
  %base = getelementptr inbounds %struct.Type, ptr %ty, i64 0, i32 6
  %0 = load ptr, ptr %base, align 8
  %tobool.not = icmp eq ptr %0, null
  br i1 %tobool.not, label %if.end, label %if.then

if.then:                                          ; preds = %entry
  %call2 = tail call fastcc ptr @compute_vla_size(ptr noundef nonnull %0, ptr noundef %tok)
  %call.i.i = tail call noalias noundef dereferenceable_or_null(288) ptr @calloc(i64 noundef 1, i64 noundef 288) #14
  store i32 18, ptr %call.i.i, align 16
  %tok2.i.i = getelementptr inbounds %struct.Node, ptr %call.i.i, i64 0, i32 3
  store ptr %tok, ptr %tok2.i.i, align 8
  %lhs1.i = getelementptr inbounds %struct.Node, ptr %call.i.i, i64 0, i32 4
  store ptr %call.i, ptr %lhs1.i, align 16
  %rhs2.i = getelementptr inbounds %struct.Node, ptr %call.i.i, i64 0, i32 5
  store ptr %call2, ptr %rhs2.i, align 8
  br label %if.end

if.end:                                           ; preds = %if.then, %entry
  %node.0 = phi ptr [ %call.i.i, %if.then ], [ %call.i, %entry ]
  %1 = load i32, ptr %ty, align 8
  %cmp.not = icmp eq i32 %1, 13
  br i1 %cmp.not, label %if.end5, label %return

if.end5:                                          ; preds = %if.end
  %2 = load ptr, ptr %base, align 8
  %3 = load i32, ptr %2, align 8
  %cmp8 = icmp eq i32 %3, 13
  br i1 %cmp8, label %if.then9, label %if.else

if.then9:                                         ; preds = %if.end5
  %vla_size = getelementptr inbounds %struct.Type, ptr %2, i64 0, i32 11
  %4 = load ptr, ptr %vla_size, align 8
  %call.i.i19 = tail call noalias noundef dereferenceable_or_null(288) ptr @calloc(i64 noundef 1, i64 noundef 288) #14
  store i32 40, ptr %call.i.i19, align 16
  %tok2.i.i20 = getelementptr inbounds %struct.Node, ptr %call.i.i19, i64 0, i32 3
  store ptr %tok, ptr %tok2.i.i20, align 8
  %var1.i = getelementptr inbounds %struct.Node, ptr %call.i.i19, i64 0, i32 32
  store ptr %4, ptr %var1.i, align 16
  br label %if.end14

if.else:                                          ; preds = %if.end5
  %size = getelementptr inbounds %struct.Type, ptr %2, i64 0, i32 1
  %5 = load i32, ptr %size, align 4
  %conv = sext i32 %5 to i64
  %call.i.i21 = tail call noalias noundef dereferenceable_or_null(288) ptr @calloc(i64 noundef 1, i64 noundef 288) #14
  store i32 42, ptr %call.i.i21, align 16
  %tok2.i.i22 = getelementptr inbounds %struct.Node, ptr %call.i.i21, i64 0, i32 3
  store ptr %tok, ptr %tok2.i.i22, align 8
  %val1.i = getelementptr inbounds %struct.Node, ptr %call.i.i21, i64 0, i32 33
  store i64 %conv, ptr %val1.i, align 8
  br label %if.end14

if.end14:                                         ; preds = %if.else, %if.then9
  %base_sz.0 = phi ptr [ %call.i.i19, %if.then9 ], [ %call.i.i21, %if.else ]
  %6 = load ptr, ptr @ty_ulong, align 8
  %call.i.i23 = tail call noalias dereferenceable_or_null(144) ptr @calloc(i64 noundef 1, i64 noundef 144) #14
  %name1.i.i = getelementptr inbounds %struct.Obj, ptr %call.i.i23, i64 0, i32 1
  store ptr @.str.4, ptr %name1.i.i, align 8
  %ty2.i.i = getelementptr inbounds %struct.Obj, ptr %call.i.i23, i64 0, i32 2
  store ptr %6, ptr %ty2.i.i, align 8
  %align.i.i = getelementptr inbounds %struct.Type, ptr %6, i64 0, i32 2
  %7 = load i32, ptr %align.i.i, align 8
  %align3.i.i = getelementptr inbounds %struct.Obj, ptr %call.i.i23, i64 0, i32 5
  store i32 %7, ptr %align3.i.i, align 4
  %call.i.i.i = tail call noalias dereferenceable_or_null(32) ptr @calloc(i64 noundef 1, i64 noundef 32) #14
  %8 = load ptr, ptr @scope, align 8
  %vars.i.i.i = getelementptr inbounds %struct.Scope, ptr %8, i64 0, i32 1
  tail call void @hashmap_put(ptr noundef nonnull %vars.i.i.i, ptr noundef nonnull @.str.4, ptr noundef %call.i.i.i) #13
  store ptr %call.i.i23, ptr %call.i.i.i, align 8
  %is_local.i = getelementptr inbounds %struct.Obj, ptr %call.i.i23, i64 0, i32 4
  store i8 1, ptr %is_local.i, align 8
  %9 = load ptr, ptr @locals, align 8
  store ptr %9, ptr %call.i.i23, align 8
  store ptr %call.i.i23, ptr @locals, align 8
  %vla_size16 = getelementptr inbounds %struct.Type, ptr %ty, i64 0, i32 11
  store ptr %call.i.i23, ptr %vla_size16, align 8
  %call.i.i24 = tail call noalias noundef dereferenceable_or_null(288) ptr @calloc(i64 noundef 1, i64 noundef 288) #14
  store i32 40, ptr %call.i.i24, align 16
  %tok2.i.i25 = getelementptr inbounds %struct.Node, ptr %call.i.i24, i64 0, i32 3
  store ptr %tok, ptr %tok2.i.i25, align 8
  %var1.i26 = getelementptr inbounds %struct.Node, ptr %call.i.i24, i64 0, i32 32
  store ptr %call.i.i23, ptr %var1.i26, align 16
  %vla_len = getelementptr inbounds %struct.Type, ptr %ty, i64 0, i32 10
  %10 = load ptr, ptr %vla_len, align 8
  %call.i.i27 = tail call noalias noundef dereferenceable_or_null(288) ptr @calloc(i64 noundef 1, i64 noundef 288) #14
  store i32 3, ptr %call.i.i27, align 16
  %tok2.i.i28 = getelementptr inbounds %struct.Node, ptr %call.i.i27, i64 0, i32 3
  store ptr %tok, ptr %tok2.i.i28, align 8
  %lhs1.i29 = getelementptr inbounds %struct.Node, ptr %call.i.i27, i64 0, i32 4
  store ptr %10, ptr %lhs1.i29, align 16
  %rhs2.i30 = getelementptr inbounds %struct.Node, ptr %call.i.i27, i64 0, i32 5
  store ptr %base_sz.0, ptr %rhs2.i30, align 8
  %call.i.i31 = tail call noalias noundef dereferenceable_or_null(288) ptr @calloc(i64 noundef 1, i64 noundef 288) #14
  store i32 16, ptr %call.i.i31, align 16
  %tok2.i.i32 = getelementptr inbounds %struct.Node, ptr %call.i.i31, i64 0, i32 3
  store ptr %tok, ptr %tok2.i.i32, align 8
  %lhs1.i33 = getelementptr inbounds %struct.Node, ptr %call.i.i31, i64 0, i32 4
  store ptr %call.i.i24, ptr %lhs1.i33, align 16
  %rhs2.i34 = getelementptr inbounds %struct.Node, ptr %call.i.i31, i64 0, i32 5
  store ptr %call.i.i27, ptr %rhs2.i34, align 8
  %call.i.i35 = tail call noalias noundef dereferenceable_or_null(288) ptr @calloc(i64 noundef 1, i64 noundef 288) #14
  store i32 18, ptr %call.i.i35, align 16
  %tok2.i.i36 = getelementptr inbounds %struct.Node, ptr %call.i.i35, i64 0, i32 3
  store ptr %tok, ptr %tok2.i.i36, align 8
  %lhs1.i37 = getelementptr inbounds %struct.Node, ptr %call.i.i35, i64 0, i32 4
  store ptr %node.0, ptr %lhs1.i37, align 16
  %rhs2.i38 = getelementptr inbounds %struct.Node, ptr %call.i.i35, i64 0, i32 5
  store ptr %call.i.i31, ptr %rhs2.i38, align 8
  br label %return

return:                                           ; preds = %if.end, %if.end14
  %retval.0 = phi ptr [ %call.i.i35, %if.end14 ], [ %node.0, %if.end ]
  ret ptr %retval.0
}